; Function Attrs: mustprogress nounwind uwtable
define dso_local void @_ZNK4llvm18BlockFrequencyInfo5printERNS_11raw_ostreamE(ptr nocapture noundef nonnull readonly align 8 dereferenceable(8) %0, ptr noundef nonnull align 8 dereferenceable(48) %1) local_unnamed_addr #0 align 2 {
  %3 = load ptr, ptr %0, align 8
  %.not = icmp eq ptr %3, null
  br i1 %.not, label %9, label %4

4:                                                ; preds = %2
  %5 = load ptr, ptr %3, align 8
  %6 = getelementptr inbounds i8, ptr %5, i64 24
  %7 = load ptr, ptr %6, align 8
  %8 = tail call noundef nonnull align 8 dereferenceable(48) ptr %7(ptr noundef nonnull align 8 dereferenceable(184) %3, ptr noundef nonnull align 8 dereferenceable(48) %1) #23
  br label %9

9:                                                ; preds = %4, %2
  ret void
}